; Function Attrs: inlinehint mustprogress nounwind uwtable
define internal fastcc void @"_ZZZN17grpc_event_engine12experimental18ThreadyEventEngine7ConnectEN4absl12lts_2024072212AnyInvocableIFvNS3_8StatusOrISt10unique_ptrINS0_11EventEngine8EndpointESt14default_deleteIS8_EEEEEEERKNS7_15ResolvedAddressERKNS0_14EndpointConfigENS0_15MemoryAllocatorENSt6chrono8durationIlSt5ratioILl1ELl1000000000EEEEEN3$_0clESC_ENUlvE_D2Ev"(ptr noundef nonnull align 16 dereferenceable(48) %0) unnamed_addr #6 align 2 personality ptr @__gxx_personality_v0 {
  %2 = getelementptr inbounds nuw i8, ptr %0, i64 32
  %3 = load i64, ptr %2, align 16, !tbaa !79
  %4 = icmp eq i64 %3, 1
  br i1 %4, label %_ZN4absl12lts_202407226StatusD2Ev.exit.i, label %10

_ZN4absl12lts_202407226StatusD2Ev.exit.i:         ; preds = %1
  %5 = getelementptr inbounds nuw i8, ptr %0, i64 40
  %6 = load ptr, ptr %5, align 8, !tbaa !121
  %.not.i.i = icmp eq ptr %6, null
  br i1 %.not.i.i, label %_ZNSt10unique_ptrIN17grpc_event_engine12experimental11EventEngine8EndpointESt14default_deleteIS3_EED2Ev.exit.i, label %_ZNKSt14default_deleteIN17grpc_event_engine12experimental11EventEngine8EndpointEEclEPS3_.exit.i.i

_ZNKSt14default_deleteIN17grpc_event_engine12experimental11EventEngine8EndpointEEclEPS3_.exit.i.i: ; preds = %_ZN4absl12lts_202407226StatusD2Ev.exit.i
  %7 = load ptr, ptr %6, align 8, !tbaa !21
  %8 = getelementptr inbounds nuw i8, ptr %7, i64 16
  %9 = load ptr, ptr %8, align 8
  tail call void %9(ptr noundef nonnull align 8 dereferenceable(8) %6) #26
  br label %_ZNSt10unique_ptrIN17grpc_event_engine12experimental11EventEngine8EndpointESt14default_deleteIS3_EED2Ev.exit.i

_ZNSt10unique_ptrIN17grpc_event_engine12experimental11EventEngine8EndpointESt14default_deleteIS3_EED2Ev.exit.i: ; preds = %_ZNKSt14default_deleteIN17grpc_event_engine12experimental11EventEngine8EndpointEEclEPS3_.exit.i.i, %_ZN4absl12lts_202407226StatusD2Ev.exit.i
  store ptr null, ptr %5, align 8, !tbaa !121
  br label %_ZN4absl12lts_2024072217internal_statusor12StatusOrDataISt10unique_ptrIN17grpc_event_engine12experimental11EventEngine8EndpointESt14default_deleteIS7_EEED2Ev.exit

10:                                               ; preds = %1
  %11 = and i64 %3, 1
  %.not.i.i1.i = icmp eq i64 %11, 0
  br i1 %.not.i.i1.i, label %12, label %_ZN4absl12lts_2024072217internal_statusor12StatusOrDataISt10unique_ptrIN17grpc_event_engine12experimental11EventEngine8EndpointESt14default_deleteIS7_EEED2Ev.exit

12:                                               ; preds = %10
  %13 = inttoptr i64 %3 to ptr
  invoke void @_ZNK4absl12lts_2024072215status_internal9StatusRep5UnrefEv(ptr noundef nonnull align 8 dereferenceable(48) %13)
          to label %_ZN4absl12lts_2024072217internal_statusor12StatusOrDataISt10unique_ptrIN17grpc_event_engine12experimental11EventEngine8EndpointESt14default_deleteIS7_EEED2Ev.exit unwind label %14

14:                                               ; preds = %12
  %15 = landingpad { ptr, i32 }
          catch ptr null
  %16 = extractvalue { ptr, i32 } %15, 0
  tail call void @__clang_call_terminate(ptr %16) #29
  unreachable

_ZN4absl12lts_2024072217internal_statusor12StatusOrDataISt10unique_ptrIN17grpc_event_engine12experimental11EventEngine8EndpointESt14default_deleteIS7_EEED2Ev.exit: ; preds = %_ZNSt10unique_ptrIN17grpc_event_engine12experimental11EventEngine8EndpointESt14default_deleteIS3_EED2Ev.exit.i, %10, %12
  %17 = getelementptr inbounds nuw i8, ptr %0, i64 16
  %18 = load ptr, ptr %17, align 16, !tbaa !74
  tail call void %18(i1 noundef zeroext true, ptr noundef nonnull align 16 dereferenceable(32) %0, ptr noundef nonnull align 16 dereferenceable(32) %0) #26
  ret void
}